target datalayout = "e-m:e-p270:32:32-p271:32:32-p272:64:64-i64:64-i128:128-f80:128-n8:16:32:64-S128"
target triple = "x86_64-pc-linux-gnu"

@.str = private unnamed_addr constant [1 x i8] zeroinitializer, align 1

; Function Attrs: nounwind uwtable
define noalias ptr @pmix_argv_join_range(ptr noundef %0, i64 noundef %1, i64 noundef %2, i32 noundef %3) #0 {
  %5 = alloca ptr, align 8
  %6 = alloca ptr, align 8
  %7 = alloca i64, align 8
  %8 = alloca i64, align 8
  %9 = alloca i32, align 4
  %10 = alloca ptr, align 8
  %11 = alloca ptr, align 8
  %12 = alloca ptr, align 8
  %13 = alloca i64, align 8
  %14 = alloca i64, align 8
  %15 = alloca i32, align 4
  store ptr %0, ptr %6, align 8, !tbaa !14
  store i64 %1, ptr %7, align 8, !tbaa !18
  store i64 %2, ptr %8, align 8, !tbaa !18
  store i32 %3, ptr %9, align 4, !tbaa !12
  call void @llvm.lifetime.start.p0(i64 8, ptr %10) #7
  call void @llvm.lifetime.start.p0(i64 8, ptr %11) #7
  call void @llvm.lifetime.start.p0(i64 8, ptr %12) #7
  call void @llvm.lifetime.start.p0(i64 8, ptr %13) #7
  store i64 0, ptr %13, align 8, !tbaa !18
  call void @llvm.lifetime.start.p0(i64 8, ptr %14) #7
  %16 = load ptr, ptr %6, align 8, !tbaa !14
  %17 = icmp eq ptr null, %16
  br i1 %17, label %29, label %18

18:                                               ; preds = %4
  %19 = load ptr, ptr %6, align 8, !tbaa !14
  %20 = getelementptr inbounds ptr, ptr %19, i64 0
  %21 = load ptr, ptr %20, align 8, !tbaa !10
  %22 = icmp eq ptr null, %21
  br i1 %22, label %29, label %23

23:                                               ; preds = %18
  %24 = load i64, ptr %7, align 8, !tbaa !18
  %25 = trunc i64 %24 to i32
  %26 = load ptr, ptr %6, align 8, !tbaa !14
  %27 = call i32 @PMIx_Argv_count(ptr noundef %26)
  %28 = icmp sge i32 %25, %27
  br i1 %28, label %29, label %31

29:                                               ; preds = %23, %18, %4
  %30 = call noalias ptr @strdup(ptr noundef @.str) #7
  store ptr %30, ptr %5, align 8
  store i32 1, ptr %15, align 4
  br label %110

31:                                               ; preds = %23
  %32 = load ptr, ptr %6, align 8, !tbaa !14
  %33 = load i64, ptr %7, align 8, !tbaa !18
  %34 = getelementptr inbounds nuw ptr, ptr %32, i64 %33
  store ptr %34, ptr %10, align 8, !tbaa !14
  %35 = load i64, ptr %7, align 8, !tbaa !18
  store i64 %35, ptr %14, align 8, !tbaa !18
  br label %36

36:                                               ; preds = %53, %31
  %37 = load ptr, ptr %10, align 8, !tbaa !14
  %38 = load ptr, ptr %37, align 8, !tbaa !10
  %39 = icmp ne ptr %38, null
  br i1 %39, label %40, label %44

40:                                               ; preds = %36
  %41 = load i64, ptr %14, align 8, !tbaa !18
  %42 = load i64, ptr %8, align 8, !tbaa !18
  %43 = icmp ult i64 %41, %42
  br label %44

44:                                               ; preds = %40, %36
  %45 = phi i1 [ false, %36 ], [ %43, %40 ]
  br i1 %45, label %46, label %58

46:                                               ; preds = %44
  %47 = load ptr, ptr %10, align 8, !tbaa !14
  %48 = load ptr, ptr %47, align 8, !tbaa !10
  %49 = call i64 @strlen(ptr noundef %48) #8
  %50 = add i64 %49, 1
  %51 = load i64, ptr %13, align 8, !tbaa !18
  %52 = add i64 %51, %50
  store i64 %52, ptr %13, align 8, !tbaa !18
  br label %53

53:                                               ; preds = %46
  %54 = load ptr, ptr %10, align 8, !tbaa !14
  %55 = getelementptr inbounds nuw ptr, ptr %54, i32 1
  store ptr %55, ptr %10, align 8, !tbaa !14
  %56 = load i64, ptr %14, align 8, !tbaa !18
  %57 = add i64 %56, 1
  store i64 %57, ptr %14, align 8, !tbaa !18
  br label %36, !llvm.loop !20

58:                                               ; preds = %44
  %59 = load i64, ptr %13, align 8, !tbaa !18
  %60 = icmp eq i64 0, %59
  br i1 %60, label %61, label %63

61:                                               ; preds = %58
  %62 = call noalias ptr @strdup(ptr noundef @.str) #7
  store ptr %62, ptr %5, align 8
  store i32 1, ptr %15, align 4
  br label %110

63:                                               ; preds = %58
  %64 = load i64, ptr %13, align 8, !tbaa !18
  %65 = call noalias ptr @malloc(i64 noundef %64) #9
  store ptr %65, ptr %12, align 8, !tbaa !10
  %66 = icmp eq ptr null, %65
  br i1 %66, label %67, label %68

67:                                               ; preds = %63
  store ptr null, ptr %5, align 8
  store i32 1, ptr %15, align 4
  br label %110

68:                                               ; preds = %63
  %69 = load ptr, ptr %12, align 8, !tbaa !10
  %70 = load i64, ptr %13, align 8, !tbaa !18
  %71 = add i64 %70, -1
  store i64 %71, ptr %13, align 8, !tbaa !18
  %72 = getelementptr inbounds nuw i8, ptr %69, i64 %71
  store i8 0, ptr %72, align 1, !tbaa !21
  %73 = load ptr, ptr %6, align 8, !tbaa !14
  %74 = load i64, ptr %7, align 8, !tbaa !18
  %75 = getelementptr inbounds nuw ptr, ptr %73, i64 %74
  store ptr %75, ptr %10, align 8, !tbaa !14
  %76 = load ptr, ptr %10, align 8, !tbaa !14
  %77 = load ptr, ptr %76, align 8, !tbaa !10
  store ptr %77, ptr %11, align 8, !tbaa !10
  store i64 0, ptr %14, align 8, !tbaa !18
  br label %78

78:                                               ; preds = %105, %68
  %79 = load i64, ptr %14, align 8, !tbaa !18
  %80 = load i64, ptr %13, align 8, !tbaa !18
  %81 = icmp ult i64 %79, %80
  br i1 %81, label %82, label %108

82:                                               ; preds = %78
  %83 = load ptr, ptr %11, align 8, !tbaa !10
  %84 = load i8, ptr %83, align 1, !tbaa !21
  %85 = sext i8 %84 to i32
  %86 = icmp eq i32 0, %85
  br i1 %86, label %87, label %97

87:                                               ; preds = %82
  %88 = load i32, ptr %9, align 4, !tbaa !12
  %89 = trunc i32 %88 to i8
  %90 = load ptr, ptr %12, align 8, !tbaa !10
  %91 = load i64, ptr %14, align 8, !tbaa !18
  %92 = getelementptr inbounds nuw i8, ptr %90, i64 %91
  store i8 %89, ptr %92, align 1, !tbaa !21
  %93 = load ptr, ptr %10, align 8, !tbaa !14
  %94 = getelementptr inbounds nuw ptr, ptr %93, i32 1
  store ptr %94, ptr %10, align 8, !tbaa !14
  %95 = load ptr, ptr %10, align 8, !tbaa !14
  %96 = load ptr, ptr %95, align 8, !tbaa !10
  store ptr %96, ptr %11, align 8, !tbaa !10
  br label %104

97:                                               ; preds = %82
  %98 = load ptr, ptr %11, align 8, !tbaa !10
  %99 = getelementptr inbounds nuw i8, ptr %98, i32 1
  store ptr %99, ptr %11, align 8, !tbaa !10
  %100 = load i8, ptr %98, align 1, !tbaa !21
  %101 = load ptr, ptr %12, align 8, !tbaa !10
  %102 = load i64, ptr %14, align 8, !tbaa !18
  %103 = getelementptr inbounds nuw i8, ptr %101, i64 %102
  store i8 %100, ptr %103, align 1, !tbaa !21
  br label %104

104:                                              ; preds = %97, %87
  br label %105

105:                                              ; preds = %104
  %106 = load i64, ptr %14, align 8, !tbaa !18
  %107 = add i64 %106, 1
  store i64 %107, ptr %14, align 8, !tbaa !18
  br label %78, !llvm.loop !22

108:                                              ; preds = %78
  %109 = load ptr, ptr %12, align 8, !tbaa !10
  store ptr %109, ptr %5, align 8
  store i32 1, ptr %15, align 4
  br label %110

110:                                              ; preds = %108, %67, %61, %29
  call void @llvm.lifetime.end.p0(i64 8, ptr %14) #7
  call void @llvm.lifetime.end.p0(i64 8, ptr %13) #7
  call void @llvm.lifetime.end.p0(i64 8, ptr %12) #7
  call void @llvm.lifetime.end.p0(i64 8, ptr %11) #7
  call void @llvm.lifetime.end.p0(i64 8, ptr %10) #7
  %111 = load ptr, ptr %5, align 8
  ret ptr %111
}