; Function Attrs: nounwind uwtable
define noalias noundef ptr @pmix_argv_join_range(ptr noundef %0, i64 noundef %1, i64 noundef %2, i32 noundef %3) local_unnamed_addr #0 {
  %5 = icmp eq ptr %0, null
  br i1 %5, label %.loopexit.sink.split, label %6

6:                                                ; preds = %4
  %7 = load ptr, ptr %0, align 8, !tbaa !10
  %8 = icmp eq ptr %7, null
  br i1 %8, label %.loopexit.sink.split, label %9

9:                                                ; preds = %6
  %10 = trunc i64 %1 to i32
  %11 = tail call i32 @PMIx_Argv_count(ptr noundef nonnull %0) #10
  %.not = icmp sgt i32 %11, %10
  br i1 %.not, label %12, label %.loopexit.sink.split

12:                                               ; preds = %9
  %13 = getelementptr inbounds nuw ptr, ptr %0, i64 %1
  %14 = load ptr, ptr %13, align 8, !tbaa !10
  %15 = icmp ne ptr %14, null
  %16 = icmp ult i64 %1, %2
  %17 = and i1 %15, %16
  br i1 %17, label %.lr.ph, label %.loopexit.sink.split

.lr.ph:                                           ; preds = %12, %.lr.ph
  %18 = phi ptr [ %24, %.lr.ph ], [ %14, %12 ]
  %.045 = phi i64 [ %23, %.lr.ph ], [ %1, %12 ]
  %.03444 = phi i64 [ %21, %.lr.ph ], [ 0, %12 ]
  %.03843 = phi ptr [ %22, %.lr.ph ], [ %13, %12 ]
  %19 = tail call i64 @strlen(ptr noundef nonnull dereferenceable(1) %18) #11
  %20 = add i64 %.03444, 1
  %21 = add i64 %20, %19
  %22 = getelementptr inbounds nuw i8, ptr %.03843, i64 8
  %23 = add nuw i64 %.045, 1
  %24 = load ptr, ptr %22, align 8, !tbaa !10
  %25 = icmp ne ptr %24, null
  %26 = icmp ult i64 %23, %2
  %27 = select i1 %25, i1 %26, i1 false
  br i1 %27, label %.lr.ph, label %._crit_edge, !llvm.loop !14

._crit_edge:                                      ; preds = %.lr.ph
  %28 = icmp eq i64 %21, 0
  br i1 %28, label %.loopexit.sink.split, label %29

29:                                               ; preds = %._crit_edge
  %30 = tail call noalias ptr @malloc(i64 noundef %21) #12
  %31 = icmp eq ptr %30, null
  br i1 %31, label %.loopexit, label %32

32:                                               ; preds = %29
  %33 = add i64 %.03444, %19
  %34 = getelementptr inbounds nuw i8, ptr %30, i64 %33
  store i8 0, ptr %34, align 1, !tbaa !15
  %.not51 = icmp eq i64 %33, 0
  br i1 %.not51, label %.loopexit, label %.lr.ph50

.lr.ph50:                                         ; preds = %32
  %35 = trunc i32 %3 to i8
  br label %36

36:                                               ; preds = %.lr.ph50, %46
  %.148 = phi i64 [ 0, %.lr.ph50 ], [ %47, %46 ]
  %.03647 = phi ptr [ %14, %.lr.ph50 ], [ %.137, %46 ]
  %.13946 = phi ptr [ %13, %.lr.ph50 ], [ %.2, %46 ]
  %37 = load i8, ptr %.03647, align 1, !tbaa !15
  %38 = icmp eq i8 %37, 0
  br i1 %38, label %39, label %43

39:                                               ; preds = %36
  %40 = getelementptr inbounds nuw i8, ptr %30, i64 %.148
  store i8 %35, ptr %40, align 1, !tbaa !15
  %41 = getelementptr inbounds nuw i8, ptr %.13946, i64 8
  %42 = load ptr, ptr %41, align 8, !tbaa !10
  br label %46

43:                                               ; preds = %36
  %44 = getelementptr inbounds nuw i8, ptr %.03647, i64 1
  %45 = getelementptr inbounds nuw i8, ptr %30, i64 %.148
  store i8 %37, ptr %45, align 1, !tbaa !15
  br label %46

46:                                               ; preds = %39, %43
  %.2 = phi ptr [ %41, %39 ], [ %.13946, %43 ]
  %.137 = phi ptr [ %42, %39 ], [ %44, %43 ]
  %47 = add nuw i64 %.148, 1
  %exitcond.not = icmp eq i64 %47, %33
  br i1 %exitcond.not, label %.loopexit, label %36, !llvm.loop !16

.loopexit.sink.split:                             ; preds = %._crit_edge, %12, %4, %6, %9
  %48 = tail call noalias dereferenceable_or_null(1) ptr @strdup(ptr noundef nonnull @.str) #10
  br label %.loopexit

.loopexit:                                        ; preds = %46, %.loopexit.sink.split, %32, %29
  %.035 = phi ptr [ null, %29 ], [ %30, %32 ], [ %48, %.loopexit.sink.split ], [ %30, %46 ]
  ret ptr %.035
}